target datalayout = "e-m:e-p270:32:32-p271:32:32-p272:64:64-i64:64-i128:128-f80:128-n8:16:32:64-S128"
target triple = "x86_64-pc-linux-gnu"

%"struct.std::_Vector_base.759" = type { %"struct.std::_Vector_base<std::shared_ptr<El>, std::allocator<std::shared_ptr<El>>>::_Vector_impl" }
%"struct.std::_Vector_base<std::shared_ptr<El>, std::allocator<std::shared_ptr<El>>>::_Vector_impl" = type { %"struct.std::_Vector_base<std::shared_ptr<El>, std::allocator<std::shared_ptr<El>>>::_Vector_impl_data" }
%"struct.std::_Vector_base<std::shared_ptr<El>, std::allocator<std::shared_ptr<El>>>::_Vector_impl_data" = type { ptr, ptr, ptr }

; Function Attrs: mustprogress nounwind optsize uwtable
define internal void @_ZNSt15__new_allocatorISt10shared_ptrIZL38nanobind_init_test_stl_bind_vector_extRN8nanobind7module_EE2ElEEC2ERKS6_(ptr noundef nonnull align 1 dereferenceable(1) %0, ptr noundef nonnull align 1 dereferenceable(1) %1) unnamed_addr #8 align 2 {
  %3 = alloca ptr, align 8
  %4 = alloca ptr, align 8
  store ptr %0, ptr %3, align 8, !tbaa !1056
  store ptr %1, ptr %4, align 8, !tbaa !1056
  ret void
}

; Function Attrs: mustprogress nounwind optsize uwtable
define internal void @_ZNSt12_Vector_baseISt10shared_ptrIZL38nanobind_init_test_stl_bind_vector_extRN8nanobind7module_EE2ElESaIS5_EE17_Vector_impl_dataC2EOS8_(ptr noundef nonnull align 8 dereferenceable(24) %0, ptr noundef nonnull align 8 dereferenceable(24) %1) unnamed_addr #8 align 2 {
  %3 = alloca ptr, align 8
  %4 = alloca ptr, align 8
  store ptr %0, ptr %3, align 8, !tbaa !1063
  store ptr %1, ptr %4, align 8, !tbaa !1063
  %5 = load ptr, ptr %3, align 8
  %6 = getelementptr inbounds nuw %"struct.std::_Vector_base<std::shared_ptr<El>, std::allocator<std::shared_ptr<El>>>::_Vector_impl_data", ptr %5, i32 0, i32 0
  %7 = load ptr, ptr %4, align 8, !tbaa !1063
  %8 = getelementptr inbounds nuw %"struct.std::_Vector_base<std::shared_ptr<El>, std::allocator<std::shared_ptr<El>>>::_Vector_impl_data", ptr %7, i32 0, i32 0
  %9 = load ptr, ptr %8, align 8, !tbaa !1048
  store ptr %9, ptr %6, align 8, !tbaa !1048
  %10 = getelementptr inbounds nuw %"struct.std::_Vector_base<std::shared_ptr<El>, std::allocator<std::shared_ptr<El>>>::_Vector_impl_data", ptr %5, i32 0, i32 1
  %11 = load ptr, ptr %4, align 8, !tbaa !1063
  %12 = getelementptr inbounds nuw %"struct.std::_Vector_base<std::shared_ptr<El>, std::allocator<std::shared_ptr<El>>>::_Vector_impl_data", ptr %11, i32 0, i32 1
  %13 = load ptr, ptr %12, align 8, !tbaa !1051
  store ptr %13, ptr %10, align 8, !tbaa !1051
  %14 = getelementptr inbounds nuw %"struct.std::_Vector_base<std::shared_ptr<El>, std::allocator<std::shared_ptr<El>>>::_Vector_impl_data", ptr %5, i32 0, i32 2
  %15 = load ptr, ptr %4, align 8, !tbaa !1063
  %16 = getelementptr inbounds nuw %"struct.std::_Vector_base<std::shared_ptr<El>, std::allocator<std::shared_ptr<El>>>::_Vector_impl_data", ptr %15, i32 0, i32 2
  %17 = load ptr, ptr %16, align 8, !tbaa !1060
  store ptr %17, ptr %14, align 8, !tbaa !1060
  %18 = load ptr, ptr %4, align 8, !tbaa !1063
  %19 = getelementptr inbounds nuw %"struct.std::_Vector_base<std::shared_ptr<El>, std::allocator<std::shared_ptr<El>>>::_Vector_impl_data", ptr %18, i32 0, i32 2
  store ptr null, ptr %19, align 8, !tbaa !1060
  %20 = load ptr, ptr %4, align 8, !tbaa !1063
  %21 = getelementptr inbounds nuw %"struct.std::_Vector_base<std::shared_ptr<El>, std::allocator<std::shared_ptr<El>>>::_Vector_impl_data", ptr %20, i32 0, i32 1
  store ptr null, ptr %21, align 8, !tbaa !1051
  %22 = load ptr, ptr %4, align 8, !tbaa !1063
  %23 = getelementptr inbounds nuw %"struct.std::_Vector_base<std::shared_ptr<El>, std::allocator<std::shared_ptr<El>>>::_Vector_impl_data", ptr %22, i32 0, i32 0
  store ptr null, ptr %23, align 8, !tbaa !1048
  ret void
}

; Function Attrs: mustprogress nounwind optsize uwtable
define internal void @_ZNSaISt10shared_ptrIZL38nanobind_init_test_stl_bind_vector_extRN8nanobind7module_EE2ElEEC2ERKS5_(ptr noundef nonnull align 1 dereferenceable(1) %0, ptr noundef nonnull align 1 dereferenceable(1) %1) unnamed_addr #8 align 2 {
  %3 = alloca ptr, align 8
  %4 = alloca ptr, align 8
  store ptr %0, ptr %3, align 8, !tbaa !1052
  store ptr %1, ptr %4, align 8, !tbaa !1052
  %5 = load ptr, ptr %3, align 8
  %6 = load ptr, ptr %4, align 8, !tbaa !1052
  call void @_ZNSt15__new_allocatorISt10shared_ptrIZL38nanobind_init_test_stl_bind_vector_extRN8nanobind7module_EE2ElEEC2ERKS6_(ptr noundef nonnull align 1 dereferenceable(1) %5, ptr noundef nonnull align 1 dereferenceable(1) %6) #22
  ret void
}

; Function Attrs: mustprogress nounwind optsize uwtable
define internal void @_ZNSt12_Vector_baseISt10shared_ptrIZL38nanobind_init_test_stl_bind_vector_extRN8nanobind7module_EE2ElESaIS5_EE12_Vector_implC2EOS8_(ptr noundef nonnull align 8 dereferenceable(24) %0, ptr noundef nonnull align 8 dereferenceable(24) %1) unnamed_addr #8 align 2 {
  %3 = alloca ptr, align 8
  %4 = alloca ptr, align 8
  store ptr %0, ptr %3, align 8, !tbaa !1061
  store ptr %1, ptr %4, align 8, !tbaa !1061
  %5 = load ptr, ptr %3, align 8
  %6 = load ptr, ptr %4, align 8, !tbaa !1061
  call void @_ZNSaISt10shared_ptrIZL38nanobind_init_test_stl_bind_vector_extRN8nanobind7module_EE2ElEEC2ERKS5_(ptr noundef nonnull align 1 dereferenceable(1) %5, ptr noundef nonnull align 1 dereferenceable(1) %6) #22
  %7 = load ptr, ptr %4, align 8, !tbaa !1061
  call void @_ZNSt12_Vector_baseISt10shared_ptrIZL38nanobind_init_test_stl_bind_vector_extRN8nanobind7module_EE2ElESaIS5_EE17_Vector_impl_dataC2EOS8_(ptr noundef nonnull align 8 dereferenceable(24) %5, ptr noundef nonnull align 8 dereferenceable(24) %7) #22
  ret void
}

; Function Attrs: mustprogress nounwind optsize uwtable
define internal void @_ZNSt12_Vector_baseISt10shared_ptrIZL38nanobind_init_test_stl_bind_vector_extRN8nanobind7module_EE2ElESaIS5_EEC2EOS7_(ptr noundef nonnull align 8 dereferenceable(24) %0, ptr noundef nonnull align 8 dereferenceable(24) %1) unnamed_addr #8 align 2 {
  %3 = alloca ptr, align 8
  %4 = alloca ptr, align 8
  store ptr %0, ptr %3, align 8, !tbaa !1054
  store ptr %1, ptr %4, align 8, !tbaa !1054
  %5 = load ptr, ptr %3, align 8
  %6 = getelementptr inbounds nuw %"struct.std::_Vector_base.759", ptr %5, i32 0, i32 0
  %7 = load ptr, ptr %4, align 8, !tbaa !1054
  %8 = getelementptr inbounds nuw %"struct.std::_Vector_base.759", ptr %7, i32 0, i32 0
  call void @_ZNSt12_Vector_baseISt10shared_ptrIZL38nanobind_init_test_stl_bind_vector_extRN8nanobind7module_EE2ElESaIS5_EE12_Vector_implC2EOS8_(ptr noundef nonnull align 8 dereferenceable(24) %6, ptr noundef nonnull align 8 dereferenceable(24) %8) #22
  ret void
}

; Function Attrs: mustprogress nounwind optsize uwtable
define internal void @_ZNSt6vectorISt10shared_ptrIZL38nanobind_init_test_stl_bind_vector_extRN8nanobind7module_EE2ElESaIS5_EEC2EOS7_(ptr noundef nonnull align 8 dereferenceable(24) %0, ptr noundef nonnull align 8 dereferenceable(24) %1) unnamed_addr #8 align 2 {
  %3 = alloca ptr, align 8
  %4 = alloca ptr, align 8
  store ptr %0, ptr %3, align 8, !tbaa !1046
  store ptr %1, ptr %4, align 8, !tbaa !1046
  %5 = load ptr, ptr %3, align 8
  %6 = load ptr, ptr %4, align 8, !tbaa !1046
  call void @_ZNSt12_Vector_baseISt10shared_ptrIZL38nanobind_init_test_stl_bind_vector_extRN8nanobind7module_EE2ElESaIS5_EEC2EOS7_(ptr noundef nonnull align 8 dereferenceable(24) %5, ptr noundef nonnull align 8 dereferenceable(24) %6) #22
  ret void
}

; Function Attrs: mustprogress nounwind optsize uwtable
define internal void @_ZN8nanobind6detail9wrap_moveISt6vectorISt10shared_ptrIZL38nanobind_init_test_stl_bind_vector_extRNS_7module_EE2ElESaIS7_EEEEvPvSA_(ptr noundef %0, ptr noundef %1) #8 {
  %3 = alloca ptr, align 8
  %4 = alloca ptr, align 8
  store ptr %0, ptr %3, align 8, !tbaa !55
  store ptr %1, ptr %4, align 8, !tbaa !55
  %5 = load ptr, ptr %3, align 8, !tbaa !55
  %6 = load ptr, ptr %4, align 8, !tbaa !55
  call void @_ZNSt6vectorISt10shared_ptrIZL38nanobind_init_test_stl_bind_vector_extRN8nanobind7module_EE2ElESaIS5_EEC2EOS7_(ptr noundef nonnull align 8 dereferenceable(24) %5, ptr noundef nonnull align 8 dereferenceable(24) %6) #22
  ret void
}